; Function Attrs: mustprogress uwtable
define void @_ZN6LibRaw11read_shortsEPtj(ptr noundef nonnull align 8 dereferenceable(767680) %0, ptr noundef %1, i32 noundef %2) local_unnamed_addr #1 align 2 {
  %4 = getelementptr inbounds nuw i8, ptr %0, i64 381416
  %5 = load ptr, ptr %4, align 8, !tbaa !72
  %6 = zext i32 %2 to i64
  %7 = load ptr, ptr %5, align 8, !tbaa !73
  %8 = getelementptr inbounds nuw i8, ptr %7, i64 24
  %9 = load ptr, ptr %8, align 8
  %10 = tail call noundef i32 %9(ptr noundef nonnull align 8 dereferenceable(8) %5, ptr noundef %1, i64 noundef 2, i64 noundef %6)
  %11 = icmp ult i32 %10, %2
  br i1 %11, label %12, label %13

12:                                               ; preds = %3
  tail call void @_ZN6LibRaw6derrorEv(ptr noundef nonnull align 8 dereferenceable(767680) %0)
  br label %13

13:                                               ; preds = %12, %3
  %14 = getelementptr inbounds nuw i8, ptr %0, i64 381552
  %15 = load i16, ptr %14, align 8, !tbaa !6
  %.not = icmp eq i16 %15, 18761
  br i1 %.not, label %19, label %16

16:                                               ; preds = %13
  %17 = shl i32 %2, 1
  %18 = zext i32 %17 to i64
  tail call void @_ZN6LibRaw11libraw_swabEPvm(ptr noundef nonnull align 8 dereferenceable(767680) %0, ptr noundef %1, i64 noundef %18)
  br label %19

19:                                               ; preds = %16, %13
  ret void
}